; Function Attrs: mustprogress uwtable
define void @_ZN4LIEF5MachO15DyldExportsTrie3addESt10unique_ptrINS0_10ExportInfoESt14default_deleteIS3_EE(ptr noundef nonnull align 8 dereferenceable(104) %0, ptr noundef %1) local_unnamed_addr #0 align 2 {
  %3 = getelementptr inbounds i8, ptr %0, i64 88
  %4 = load ptr, ptr %3, align 8
  %5 = getelementptr inbounds i8, ptr %0, i64 96
  %6 = load ptr, ptr %5, align 8
  %.not.i.i = icmp eq ptr %4, %6
  br i1 %.not.i.i, label %11, label %7

7:                                                ; preds = %2
  %8 = load i64, ptr %1, align 8
  store i64 %8, ptr %4, align 8
  store ptr null, ptr %1, align 8
  %9 = load ptr, ptr %3, align 8
  %10 = getelementptr inbounds i8, ptr %9, i64 8
  store ptr %10, ptr %3, align 8
  br label %_ZNSt6vectorISt10unique_ptrIN4LIEF5MachO10ExportInfoESt14default_deleteIS3_EESaIS6_EE9push_backEOS6_.exit

11:                                               ; preds = %2
  %12 = getelementptr inbounds i8, ptr %0, i64 80
  tail call void @_ZNSt6vectorISt10unique_ptrIN4LIEF5MachO10ExportInfoESt14default_deleteIS3_EESaIS6_EE17_M_realloc_insertIJS6_EEEvN9__gnu_cxx17__normal_iteratorIPS6_S8_EEDpOT_(ptr noundef nonnull align 8 dereferenceable(24) %12, ptr %4, ptr noundef nonnull align 8 dereferenceable(8) %1)
  br label %_ZNSt6vectorISt10unique_ptrIN4LIEF5MachO10ExportInfoESt14default_deleteIS3_EESaIS6_EE9push_backEOS6_.exit

_ZNSt6vectorISt10unique_ptrIN4LIEF5MachO10ExportInfoESt14default_deleteIS3_EESaIS6_EE9push_backEOS6_.exit: ; preds = %7, %11
  ret void
}